ccopy_reg
_reconstructor
p0
(cpandas.core.frame
DataFrame
p1
c__builtin__
object
p2
Ntp3
Rp4
(dp5
S'_metadata'
p6
(lp7
sS'_typ'
p8
S'dataframe'
p9
sS'_data'
p10
g0
(cpandas.core.internals
BlockManager
p11
g2
Ntp12
Rp13
((lp14
cpandas.core.indexes.base
_new_Index
p15
(cpandas.core.indexes.base
Index
p16
(dp17
S'data'
p18
cnumpy.core.multiarray
_reconstruct
p19
(cnumpy
ndarray
p20
(I0
tp21
S'b'
p22
tp23
Rp24
(I1
(I4
tp25
cnumpy
dtype
p26
(S'O8'
p27
I0
I1
tp28
Rp29
(I3
S'|'
p30
NNNI-1
I-1
I63
tp31
bI00
(lp32
S'F1 Score'
p33
aS'Precision'
p34
aS'Recall'
p35
aS'Training Time'
p36
atp37
bsS'name'
p38
Nstp39
Rp40
ag15
(g16
(dp41
g18
g19
(g20
(I0
tp42
g22
tp43
Rp44
(I1
(I3
tp45
g29
I00
(lp46
Fnan
aS'CNN Model 1'
p47
aS'CNN Model 1.2'
p48
atp49
bsg38
S'Name'
p50
stp51
Rp52
a(lp53
g19
(g20
(I0
tp54
g22
tp55
Rp56
(I1
(I1
I3
tp57
g26
(S'f8'
p58
I0
I1
tp59
Rp60
(I3
S'<'
p61
NNNI-1
I-1
I0
tp62
bI00
S'\xb2\x16\xf3\xc2\x0fL\xe3?\xb2\x16\xf3\xc2\x0fL\xe3?\xac\xa2\xd46p\xb8\xe4?'
p63
tp64
bag19
(g20
(I0
tp65
g22
tp66
Rp67
(I1
(I2
I3
tp68
g60
I00
S'\x04S\xb24A\x06\xe1?\x04S\xb24A\x06\xe1?\xb8?\x88\xc3\xaaw\xe2?h\n\x81\xa6\x10h\xea?h\n\x81\xa6\x10h\xea?H:l\xa4\xc3F\xea?'
p69
tp70
bag19
(g20
(I0
tp71
g22
tp72
Rp73
(I1
(I1
I3
tp74
g26
(S'm8'
p75
I0
I1
tp76
Rp77
(I4
S'<'
p78
NNNI-1
I-1
I0
((dp79
(S'ns'
p80
I1
I1
I1
tp81
tp82
tp83
bI00
S' \xf0\xfb\x06\x1a\x00\x00\x00 \xf0\xfb\x06\x1a\x00\x00\x00\x80\xd4\xdc\x967\x00\x00\x00'
p84
tp85
ba(lp86
g15
(g16
(dp87
g18
g19
(g20
(I0
tp88
g22
tp89
Rp90
(I1
(I1
tp91
g29
I00
(lp92
g33
atp93
bsg38
Nstp94
Rp95
ag15
(g16
(dp96
g18
g19
(g20
(I0
tp97
g22
tp98
Rp99
(I1
(I2
tp100
g29
I00
(lp101
g34
ag35
atp102
bsg38
Nstp103
Rp104
ag15
(g16
(dp105
g18
g19
(g20
(I0
tp106
g22
tp107
Rp108
(I1
(I1
tp109
g29
I00
(lp110
g36
atp111
bsg38
Nstp112
Rp113
a(dp114
S'0.14.1'
p115
(dp116
S'axes'
p117
g14
sS'blocks'
p118
(lp119
(dp120
S'mgr_locs'
p121
c__builtin__
slice
p122
(I0
I1
I1
tp123
Rp124
sS'values'
p125
g56
sa(dp126
g121
g122
(I1
I3
I1
tp127
Rp128
sg125
g67
sa(dp129
g121
g122
(I3
I4
I1
tp130
Rp131
sg125
g73
sasstp132
bsb.